target datalayout = "e-m:e-p270:32:32-p271:32:32-p272:64:64-i64:64-i128:128-f80:128-n8:16:32:64-S128"
target triple = "x86_64-pc-linux-gnu"

; Function Attrs: nounwind uwtable
define internal i32 @evutil_issetugid() #0 {
  %1 = alloca i32, align 4
  %2 = call i32 @getuid() #11
  %3 = call i32 @geteuid() #11
  %4 = icmp ne i32 %2, %3
  br i1 %4, label %5, label %6

5:                                                ; preds = %0
  store i32 1, ptr %1, align 4
  br label %12

6:                                                ; preds = %0
  %7 = call i32 @getgid() #11
  %8 = call i32 @getegid() #11
  %9 = icmp ne i32 %7, %8
  br i1 %9, label %10, label %11

10:                                               ; preds = %6
  store i32 1, ptr %1, align 4
  br label %12

11:                                               ; preds = %6
  store i32 0, ptr %1, align 4
  br label %12

12:                                               ; preds = %11, %10, %5
  %13 = load i32, ptr %1, align 4
  ret i32 %13
}

; Function Attrs: nounwind uwtable
define hidden ptr @evutil_getenv_(ptr noundef %0) #0 {
  %2 = alloca ptr, align 8
  %3 = alloca ptr, align 8
  store ptr %0, ptr %3, align 8
  %4 = call i32 @evutil_issetugid()
  %5 = icmp ne i32 %4, 0
  br i1 %5, label %6, label %7

6:                                                ; preds = %1
  store ptr null, ptr %2, align 8
  br label %10

7:                                                ; preds = %1
  %8 = load ptr, ptr %3, align 8
  %9 = call ptr @getenv(ptr noundef %8) #11
  store ptr %9, ptr %2, align 8
  br label %10

10:                                               ; preds = %7, %6
  %11 = load ptr, ptr %2, align 8
  ret ptr %11
}