; Function Attrs: nounwind uwtable
define hidden noundef ptr @evutil_getenv_(ptr noundef readonly captures(none) %0) local_unnamed_addr #0 {
  %2 = tail call i32 @getuid() #30
  %3 = tail call i32 @geteuid() #30
  %.not.i = icmp eq i32 %2, %3
  br i1 %.not.i, label %evutil_issetugid.exit, label %evutil_issetugid.exit.thread

evutil_issetugid.exit:                            ; preds = %1
  %4 = tail call i32 @getgid() #30
  %5 = tail call i32 @getegid() #30
  %.not1.i.not = icmp eq i32 %4, %5
  br i1 %.not1.i.not, label %6, label %evutil_issetugid.exit.thread

6:                                                ; preds = %evutil_issetugid.exit
  %7 = tail call ptr @getenv(ptr noundef %0) #30
  br label %evutil_issetugid.exit.thread

evutil_issetugid.exit.thread:                     ; preds = %1, %evutil_issetugid.exit, %6
  %.0 = phi ptr [ %7, %6 ], [ null, %evutil_issetugid.exit ], [ null, %1 ]
  ret ptr %.0
}